	.file	"0-basics.c"
	.text
.Ltext0:
	.file 0 "/home/bnm/SysProg-Class/demos/1-pointers" "0-basics.c"
	.section	.rodata
.LC0:
	.string	"%x\n"
.LC1:
	.string	"hello, world"
.LC2:
	.string	"Memory allocation failed\n"
	.text
	.globl	main
	.type	main, @function
main:
.LFB6:
	.file 1 "0-basics.c"
	.loc 1 11 1
	.cfi_startproc
	endbr64
	pushq	%rbp
	.cfi_def_cfa_offset 16
	.cfi_offset 6, -16
	movq	%rsp, %rbp
	.cfi_def_cfa_register 6
	subq	$48, %rsp
	.loc 1 11 1
	movq	%fs:40, %rax
	movq	%rax, -8(%rbp)
	xorl	%eax, %eax
	.loc 1 14 9
	movl	$100, -32(%rbp)
	movl	$101, -28(%rbp)
	movl	$102, -24(%rbp)
	movl	$103, -20(%rbp)
	.loc 1 17 5
	leaq	-32(%rbp), %rax
	movq	%rax, %rsi
	leaq	.LC0(%rip), %rax
	movq	%rax, %rdi
	movl	$0, %eax
	call	printf@PLT
	.loc 1 19 5
	leaq	-32(%rbp), %rax
	movl	$4, %esi
	movq	%rax, %rdi
	call	loop_print_ints
	.loc 1 22 11
	leaq	.LC1(%rip), %rax
	movq	%rax, -48(%rbp)
	.loc 1 24 18
	movl	$50, %edi
	call	malloc@PLT
	movq	%rax, -40(%rbp)
	.loc 1 25 8
	cmpq	$0, -40(%rbp)
	jne	.L2
	.loc 1 27 9
	movq	stderr(%rip), %rax
	movq	%rax, %rcx
	movl	$25, %edx
	movl	$1, %esi
	leaq	.LC2(%rip), %rax
	movq	%rax, %rdi
	call	fwrite@PLT
	.loc 1 28 16
	movl	$-1, %eax
	jmp	.L4
.L2:
	.loc 1 31 5
	movq	-48(%rbp), %rdx
	movq	-40(%rbp), %rax
	movq	%rdx, %rsi
	movq	%rax, %rdi
	call	strcpy@PLT
	.loc 1 33 5
	movq	-40(%rbp), %rax
	movl	$50, %esi
	movq	%rax, %rdi
	call	loop_print_string
	.loc 1 35 12
	movl	$0, %eax
.L4:
	.loc 1 36 1
	movq	-8(%rbp), %rdx
	subq	%fs:40, %rdx
	je	.L5
	call	__stack_chk_fail@PLT
.L5:
	leave
	.cfi_def_cfa 7, 8
	ret
	.cfi_endproc
.LFE6:
	.size	main, .-main
	.section	.rodata
.LC3:
	.string	"%c\n"
	.text
	.globl	loop_print_string
	.type	loop_print_string, @function
loop_print_string:
.LFB7:
	.loc 1 39 1
	.cfi_startproc
	endbr64
	pushq	%rbp
	.cfi_def_cfa_offset 16
	.cfi_offset 6, -16
	movq	%rsp, %rbp
	.cfi_def_cfa_register 6
	subq	$32, %rsp
	movq	%rdi, -24(%rbp)
	movl	%esi, -28(%rbp)
.LBB2:
	.loc 1 40 14
	movl	$0, -4(%rbp)
	.loc 1 40 5
	jmp	.L7
.L10:
	.loc 1 42 13
	movq	-24(%rbp), %rax
	movzbl	(%rax), %eax
	.loc 1 42 12
	testb	%al, %al
	je	.L11
	.loc 1 46 24
	movq	-24(%rbp), %rax
	movzbl	(%rax), %eax
	.loc 1 46 9
	movsbl	%al, %eax
	movl	%eax, %esi
	leaq	.LC3(%rip), %rax
	movq	%rax, %rdi
	movl	$0, %eax
	call	printf@PLT
	.loc 1 47 17
	addq	$1, -24(%rbp)
	.loc 1 40 37 discriminator 2
	addl	$1, -4(%rbp)
.L7:
	.loc 1 40 23 discriminator 1
	movl	-4(%rbp), %eax
	cmpl	-28(%rbp), %eax
	jl	.L10
	jmp	.L6
.L11:
	.loc 1 44 13
	nop
.L6:
.LBE2:
	.loc 1 52 1
	leave
	.cfi_def_cfa 7, 8
	ret
	.cfi_endproc
.LFE7:
	.size	loop_print_string, .-loop_print_string
	.section	.rodata
.LC4:
	.string	"%d %d\n"
.LC5:
	.string	"%d\n"
	.text
	.globl	loop_print_ints
	.type	loop_print_ints, @function
loop_print_ints:
.LFB8:
	.loc 1 55 1
	.cfi_startproc
	endbr64
	pushq	%rbp
	.cfi_def_cfa_offset 16
	.cfi_offset 6, -16
	movq	%rsp, %rbp
	.cfi_def_cfa_register 6
	subq	$32, %rsp
	movq	%rdi, -24(%rbp)
	movl	%esi, -28(%rbp)
.LBB3:
	.loc 1 56 14
	movl	$0, -16(%rbp)
	.loc 1 56 5
	jmp	.L13
.L14:
	.loc 1 59 9
	movq	-24(%rbp), %rax
	movl	(%rax), %edx
	.loc 1 59 41
	movl	-16(%rbp), %eax
	cltq
	leaq	0(,%rax,4), %rcx
	movq	-24(%rbp), %rax
	addq	%rcx, %rax
	.loc 1 59 9
	movl	(%rax), %eax
	movl	%eax, %esi
	leaq	.LC4(%rip), %rax
	movq	%rax, %rdi
	movl	$0, %eax
	call	printf@PLT
	.loc 1 62 35
	movl	-16(%rbp), %eax
	cltq
	leaq	0(,%rax,4), %rdx
	movq	-24(%rbp), %rax
	addq	%rdx, %rax
	.loc 1 62 9
	movl	(%rax), %eax
	movl	%eax, %esi
	leaq	.LC5(%rip), %rax
	movq	%rax, %rdi
	movl	$0, %eax
	call	printf@PLT
	.loc 1 56 38 discriminator 3
	addl	$1, -16(%rbp)
.L13:
	.loc 1 56 23 discriminator 1
	movl	-16(%rbp), %eax
	cmpl	-28(%rbp), %eax
	jl	.L14
.LBE3:
	.loc 1 76 10
	movq	-24(%rbp), %rax
	movq	%rax, -8(%rbp)
.LBB4:
	.loc 1 78 14
	movl	$0, -12(%rbp)
	.loc 1 78 5
	jmp	.L15
.L16:
	.loc 1 80 9
	movq	-24(%rbp), %rax
	movl	(%rax), %edx
	movq	-8(%rbp), %rax
	movl	(%rax), %eax
	movl	%eax, %esi
	leaq	.LC4(%rip), %rax
	movq	%rax, %rdi
	movl	$0, %eax
	call	printf@PLT
	.loc 1 81 16
	addq	$4, -8(%rbp)
	.loc 1 78 38 discriminator 3
	addl	$1, -12(%rbp)
.L15:
	.loc 1 78 23 discriminator 1
	movl	-12(%rbp), %eax
	cmpl	-28(%rbp), %eax
	jl	.L16
.LBE4:
	.loc 1 83 1
	nop
	nop
	leave
	.cfi_def_cfa 7, 8
	ret
	.cfi_endproc
.LFE8:
	.size	loop_print_ints, .-loop_print_ints
.Letext0:
	.file 2 "/usr/include/x86_64-linux-gnu/bits/types.h"
	.file 3 "/usr/include/x86_64-linux-gnu/bits/types/struct_FILE.h"
	.file 4 "/usr/include/x86_64-linux-gnu/bits/types/FILE.h"
	.file 5 "/usr/include/string.h"
	.file 6 "/usr/include/stdlib.h"
	.file 7 "/usr/include/stdio.h"
	.section	.note.GNU-stack,"",@progbits
	.section	.note.gnu.property,"a"
	.align 8
	.long	1f - 0f
	.long	4f - 1f
	.long	5
0:
	.string	"GNU"
1:
	.align 8
	.long	0xc0000002
	.long	3f - 2f
2:
	.long	0x3
3:
	.align 8
4:
