	.arch armv8-a
	.file	"1-explicit.c"
	.text
.Ltext0:
	.file 0 "/home/ben/SysProg-Class/demos/_bl857/2-syscall-intro" "1-explicit.c"
	.section	.rodata
	.align	3
.LC0:
	.string	"my process ID via syscall(): %d\n"
	.text
	.align	2
	.global	main
	.type	main, %function
main:
.LFB6:
	.file 1 "1-explicit.c"
	.loc 1 11 1
	.cfi_startproc
	stp	x29, x30, [sp, -32]!
	.cfi_def_cfa_offset 32
	.cfi_offset 29, -32
	.cfi_offset 30, -24
	mov	x29, sp
	.loc 1 13 17
	mov	x0, 172
	bl	syscall
	.loc 1 13 11 discriminator 1
	str	w0, [sp, 28]
	.loc 1 14 5
	ldr	w1, [sp, 28]
	adrp	x0, .LC0
	add	x0, x0, :lo12:.LC0
	bl	printf
	.loc 1 17 5
	bl	getpid_syscall_wrapper
	.loc 1 20 5
	bl	getpid_asm
	.loc 1 22 5
	bl	pause
	.loc 1 24 12
	mov	w0, 0
	.loc 1 25 1
	ldp	x29, x30, [sp], 32
	.cfi_restore 30
	.cfi_restore 29
	.cfi_def_cfa_offset 0
	ret
	.cfi_endproc
.LFE6:
	.size	main, .-main
	.section	.rodata
	.align	3
.LC1:
	.string	"my process ID via asm: %d\n"
	.text
	.align	2
	.global	getpid_asm
	.type	getpid_asm, %function
getpid_asm:
.LFB7:
	.loc 1 27 19
	.cfi_startproc
	stp	x29, x30, [sp, -32]!
	.cfi_def_cfa_offset 32
	.cfi_offset 29, -32
	.cfi_offset 30, -24
	mov	x29, sp
	.loc 1 29 5
#APP
// 29 "1-explicit.c" 1
	mov x8, 172
	svc #0
	mov x1, x0
// 0 "" 2
#NO_APP
	str	w1, [sp, 28]
	.loc 1 38 5
	ldr	w1, [sp, 28]
	adrp	x0, .LC1
	add	x0, x0, :lo12:.LC1
	bl	printf
	.loc 1 39 1
	nop
	ldp	x29, x30, [sp], 32
	.cfi_restore 30
	.cfi_restore 29
	.cfi_def_cfa_offset 0
	ret
	.cfi_endproc
.LFE7:
	.size	getpid_asm, .-getpid_asm
	.section	.rodata
	.align	3
.LC2:
	.string	"my process ID via getpid() syscall wrapper: %d\n"
	.text
	.align	2
	.global	getpid_syscall_wrapper
	.type	getpid_syscall_wrapper, %function
getpid_syscall_wrapper:
.LFB8:
	.loc 1 43 1
	.cfi_startproc
	stp	x29, x30, [sp, -32]!
	.cfi_def_cfa_offset 32
	.cfi_offset 29, -32
	.cfi_offset 30, -24
	mov	x29, sp
	.loc 1 45 11
	bl	getpid
	str	w0, [sp, 28]
	.loc 1 46 5
	ldr	w1, [sp, 28]
	adrp	x0, .LC2
	add	x0, x0, :lo12:.LC2
	bl	printf
	.loc 1 47 1
	nop
	ldp	x29, x30, [sp], 32
	.cfi_restore 30
	.cfi_restore 29
	.cfi_def_cfa_offset 0
	ret
	.cfi_endproc
.LFE8:
	.size	getpid_syscall_wrapper, .-getpid_syscall_wrapper
.Letext0:
	.file 2 "/usr/include/aarch64-linux-gnu/bits/types.h"
	.file 3 "/usr/include/unistd.h"
	.file 4 "/usr/include/stdio.h"
	.section	.note.GNU-stack,"",@progbits
