	.arch armv8-a
	.file	"4-args.c"
	.text
.Ltext0:
	.file 0 "/home/ben/SysProg-Class/demos/_bl857/2-syscall-intro" "4-args.c"
	.align	2
	.global	main
	.type	main, %function
main:
.LFB6:
	.file 1 "4-args.c"
	.loc 1 19 1
	.cfi_startproc
	stp	x29, x30, [sp, -16]!
	.cfi_def_cfa_offset 16
	.cfi_offset 29, -16
	.cfi_offset 30, -8
	mov	x29, sp
	.loc 1 20 5
	bl	simple_with_args
	.loc 1 21 5
	bl	simple_with_struct
	.loc 1 23 12
	mov	w0, 0
	.loc 1 24 1
	ldp	x29, x30, [sp], 16
	.cfi_restore 30
	.cfi_restore 29
	.cfi_def_cfa_offset 0
	ret
	.cfi_endproc
.LFE6:
	.size	main, .-main
	.section	.rodata
	.align	3
.LC0:
	.string	"Hello, simple_with_args world!\n"
	.align	3
.LC1:
	.string	"Failed to write\n"
	.text
	.align	2
	.global	simple_with_args
	.type	simple_with_args, %function
simple_with_args:
.LFB7:
	.loc 1 27 1
	.cfi_startproc
	stp	x29, x30, [sp, -48]!
	.cfi_def_cfa_offset 48
	.cfi_offset 29, -48
	.cfi_offset 30, -40
	mov	x29, sp
	.loc 1 28 17
	adrp	x0, .LC0
	add	x0, x0, :lo12:.LC0
	str	x0, [sp, 16]
	.loc 1 29 21
	ldr	x0, [sp, 16]
	bl	strlen
	str	x0, [sp, 24]
	.loc 1 34 29
	ldr	x3, [sp, 24]
	ldr	x2, [sp, 16]
	mov	w1, 1
	mov	x0, 64
	bl	syscall
	str	x0, [sp, 32]
	.loc 1 37 8
	ldr	x0, [sp, 32]
	cmn	x0, #1
	bne	.L5
.LBB2:
	.loc 1 39 21
	adrp	x0, .LC1
	add	x0, x0, :lo12:.LC1
	str	x0, [sp, 40]
	.loc 1 40 9
	mov	w3, 15
	ldr	x2, [sp, 40]
	mov	w1, 2
	mov	x0, 64
	bl	syscall
.L5:
.LBE2:
	.loc 1 42 1
	nop
	ldp	x29, x30, [sp], 48
	.cfi_restore 30
	.cfi_restore 29
	.cfi_def_cfa_offset 0
	ret
	.cfi_endproc
.LFE7:
	.size	simple_with_args, .-simple_with_args
	.section	.rodata
	.align	3
.LC2:
	.string	"Failed to allocate stack"
	.align	3
.LC3:
	.string	"syscall clone3 failed"
	.align	3
.LC4:
	.string	"Hello simple_with_struct world!"
	.align	3
.LC5:
	.string	"Child process created with PID: %d\n"
	.text
	.align	2
	.global	simple_with_struct
	.type	simple_with_struct, %function
simple_with_struct:
.LFB8:
	.loc 1 45 1
	.cfi_startproc
	sub	sp, sp, #144
	.cfi_def_cfa_offset 144
	stp	x29, x30, [sp, 128]
	.cfi_offset 29, -16
	.cfi_offset 30, -8
	add	x29, sp, 128
	.loc 1 45 1
	adrp	x0, :got:__stack_chk_guard;ldr	x0, [x0, :got_lo12:__stack_chk_guard]
	ldr	x1, [x0]
	str	x1, [sp, 120]
	mov	x1, 0
	.loc 1 83 5
	add	x0, sp, 32
	mov	x2, 88
	mov	w1, 0
	bl	memset
	.loc 1 85 16
	mov	x0, 768
	str	x0, [sp, 32]
	.loc 1 86 22
	mov	x0, 17
	str	x0, [sp, 64]
	.loc 1 89 12
	mov	x0, 65536
	str	x0, [sp, 16]
	.loc 1 90 19
	ldr	x0, [sp, 16]
	bl	malloc
	str	x0, [sp, 24]
	.loc 1 91 8
	ldr	x0, [sp, 24]
	cmp	x0, 0
	bne	.L7
	.loc 1 93 9
	adrp	x0, .LC2
	add	x0, x0, :lo12:.LC2
	bl	perror
	.loc 1 94 9
	mov	w0, -1
	bl	_exit
.L7:
	.loc 1 98 40
	ldr	x1, [sp, 24]
	ldr	x0, [sp, 16]
	add	x0, x1, x0
	.loc 1 98 16
	str	x0, [sp, 72]
	.loc 1 99 21
	ldr	x0, [sp, 16]
	str	x0, [sp, 80]
	.loc 1 102 18
	add	x0, sp, 32
	mov	x2, 88
	mov	x1, x0
	mov	x0, 435
	bl	syscall
	.loc 1 102 9 discriminator 1
	str	w0, [sp, 12]
	.loc 1 104 8
	ldr	w0, [sp, 12]
	cmn	w0, #1
	bne	.L8
	.loc 1 106 9
	adrp	x0, .LC3
	add	x0, x0, :lo12:.LC3
	bl	perror
	.loc 1 107 9
	ldr	x0, [sp, 24]
	bl	free
	.loc 1 108 9
	mov	w0, -1
	bl	_exit
.L8:
	.loc 1 111 8
	ldr	w0, [sp, 12]
	cmp	w0, 0
	bne	.L9
	.loc 1 114 9
	adrp	x0, .LC4
	add	x0, x0, :lo12:.LC4
	bl	puts
	.loc 1 115 9
	mov	w0, 0
	bl	_exit
.L9:
	.loc 1 120 9
	ldr	w1, [sp, 12]
	adrp	x0, .LC5
	add	x0, x0, :lo12:.LC5
	bl	printf
	.loc 1 124 5
	ldr	x0, [sp, 24]
	bl	free
	.loc 1 125 1
	nop
	adrp	x0, :got:__stack_chk_guard;ldr	x0, [x0, :got_lo12:__stack_chk_guard]
	ldr	x2, [sp, 120]
	ldr	x1, [x0]
	subs	x2, x2, x1
	mov	x1, 0
	beq	.L10
	bl	__stack_chk_fail
.L10:
	ldp	x29, x30, [sp, 128]
	add	sp, sp, 144
	.cfi_restore 29
	.cfi_restore 30
	.cfi_def_cfa_offset 0
	ret
	.cfi_endproc
.LFE8:
	.size	simple_with_struct, .-simple_with_struct
.Letext0:
	.file 2 "/usr/include/aarch64-linux-gnu/bits/types.h"
	.file 3 "/usr/include/unistd.h"
	.file 4 "/usr/lib/gcc/aarch64-linux-gnu/14/include/stddef.h"
	.file 5 "/usr/include/asm-generic/int-ll64.h"
	.file 6 "/usr/include/aarch64-linux-gnu/bits/stdint-uintn.h"
	.file 7 "/usr/include/stdio.h"
	.file 8 "/usr/include/stdlib.h"
	.file 9 "/usr/include/string.h"
	.section	.note.GNU-stack,"",@progbits
